target datalayout = "e-m:e-p270:32:32-p271:32:32-p272:64:64-i64:64-i128:128-f80:128-n8:16:32:64-S128"
target triple = "x86_64-pc-linux-gnu"

%struct._da_data = type { ptr, ptr }
%struct.ber_decode_as_populate = type { ptr, ptr }

@.str.1 = private unnamed_addr constant [11 x i8] c"ber.syntax\00", align 1

; Function Attrs: null_pointer_is_valid sspstrong uwtable
define void @ber_decode_as_foreach(ptr noundef %0, ptr noundef %1) #0 {
  %3 = alloca ptr, align 8
  %4 = alloca ptr, align 8
  %5 = alloca %struct._da_data, align 8
  store ptr %0, ptr %3, align 8
  store ptr %1, ptr %4, align 8
  call void @llvm.lifetime.start.p0(i64 16, ptr %5) #12
  %6 = load ptr, ptr %3, align 8
  %7 = getelementptr inbounds nuw %struct._da_data, ptr %5, i32 0, i32 0
  store ptr %6, ptr %7, align 8
  %8 = load ptr, ptr %4, align 8
  %9 = getelementptr inbounds nuw %struct._da_data, ptr %5, i32 0, i32 1
  store ptr %8, ptr %9, align 8
  call void @dissector_table_foreach(ptr noundef @.str.1, ptr noundef @ber_decode_as_dt, ptr noundef %5)
  call void @llvm.lifetime.end.p0(i64 16, ptr %5) #12
  ret void
}

; Function Attrs: null_pointer_is_valid sspstrong uwtable
define internal void @ber_populate_list(ptr noundef %0, ptr noundef %1, ptr noundef %2) #0 {
  %4 = alloca ptr, align 8
  %5 = alloca ptr, align 8
  %6 = alloca ptr, align 8
  %7 = alloca %struct.ber_decode_as_populate, align 8
  store ptr %0, ptr %4, align 8
  store ptr %1, ptr %5, align 8
  store ptr %2, ptr %6, align 8
  call void @llvm.lifetime.start.p0(i64 16, ptr %7) #12
  %8 = load ptr, ptr %5, align 8
  %9 = getelementptr inbounds nuw %struct.ber_decode_as_populate, ptr %7, i32 0, i32 0
  store ptr %8, ptr %9, align 8
  %10 = load ptr, ptr %6, align 8
  %11 = getelementptr inbounds nuw %struct.ber_decode_as_populate, ptr %7, i32 0, i32 1
  store ptr %10, ptr %11, align 8
  call void @ber_decode_as_foreach(ptr noundef @decode_ber_add_to_list, ptr noundef %7)
  call void @llvm.lifetime.end.p0(i64 16, ptr %7) #12
  ret void
}