; Function Attrs: null_pointer_is_valid sspstrong uwtable
define internal void @ber_populate_list(ptr readnone captures(none) %0, ptr noundef %1, ptr noundef %2) #0 {
  %4 = alloca %struct._da_data, align 8
  %5 = alloca %struct.ber_decode_as_populate, align 8
  call void @llvm.lifetime.start.p0(i64 16, ptr nonnull %5) #14
  store ptr %1, ptr %5, align 8
  %6 = getelementptr inbounds nuw i8, ptr %5, i64 8
  store ptr %2, ptr %6, align 8
  call void @llvm.lifetime.start.p0(i64 16, ptr nonnull %4) #14
  store ptr @decode_ber_add_to_list, ptr %4, align 8
  %7 = getelementptr inbounds nuw i8, ptr %4, i64 8
  store ptr %5, ptr %7, align 8
  call void @dissector_table_foreach(ptr noundef nonnull @.str.1, ptr noundef nonnull @ber_decode_as_dt, ptr noundef nonnull %4)
  call void @llvm.lifetime.end.p0(i64 16, ptr nonnull %4) #14
  call void @llvm.lifetime.end.p0(i64 16, ptr nonnull %5) #14
  ret void
}